; ModuleID = '39/1240.c'
source_filename = "39/1240.c"
target datalayout = "e-m:e-p270:32:32-p271:32:32-p272:64:64-i64:64-f80:128-n8:16:32:64-S128"
target triple = "x86_64-pc-linux-gnu"

%struct.student = type { [21 x i8], i32, i32, i8, i8, i32, i32 }

@.str = private unnamed_addr constant [3 x i8] c"%d\00", align 1
@.str.1 = private unnamed_addr constant [18 x i8] c"%s %d %d %c %c %d\00", align 1
@.str.2 = private unnamed_addr constant [10 x i8] c"%s\0A%d\0A%ld\00", align 1

; Function Attrs: noinline nounwind uwtable
define dso_local i32 @award(%struct.student* %0) #0 {
  %2 = alloca %struct.student*, align 8
  %3 = alloca i32, align 4
  store %struct.student* %0, %struct.student** %2, align 8
  store i32 0, i32* %3, align 4
  %4 = load %struct.student*, %struct.student** %2, align 8
  %5 = getelementptr inbounds %struct.student, %struct.student* %4, i32 0, i32 1
  %6 = load i32, i32* %5, align 4
  %7 = icmp sgt i32 %6, 80
  br i1 %7, label %8, label %16

8:                                                ; preds = %1
  %9 = load %struct.student*, %struct.student** %2, align 8
  %10 = getelementptr inbounds %struct.student, %struct.student* %9, i32 0, i32 5
  %11 = load i32, i32* %10, align 4
  %12 = icmp sgt i32 %11, 0
  br i1 %12, label %13, label %16

13:                                               ; preds = %8
  %14 = load i32, i32* %3, align 4
  %15 = add nsw i32 %14, 8000
  store i32 %15, i32* %3, align 4
  br label %16

16:                                               ; preds = %13, %8, %1
  %17 = load %struct.student*, %struct.student** %2, align 8
  %18 = getelementptr inbounds %struct.student, %struct.student* %17, i32 0, i32 1
  %19 = load i32, i32* %18, align 4
  %20 = icmp sgt i32 %19, 85
  br i1 %20, label %21, label %29

21:                                               ; preds = %16
  %22 = load %struct.student*, %struct.student** %2, align 8
  %23 = getelementptr inbounds %struct.student, %struct.student* %22, i32 0, i32 2
  %24 = load i32, i32* %23, align 4
  %25 = icmp sgt i32 %24, 80
  br i1 %25, label %26, label %29

26:                                               ; preds = %21
  %27 = load i32, i32* %3, align 4
  %28 = add nsw i32 %27, 4000
  store i32 %28, i32* %3, align 4
  br label %29

29:                                               ; preds = %26, %21, %16
  %30 = load %struct.student*, %struct.student** %2, align 8
  %31 = getelementptr inbounds %struct.student, %struct.student* %30, i32 0, i32 1
  %32 = load i32, i32* %31, align 4
  %33 = icmp sgt i32 %32, 90
  br i1 %33, label %34, label %37

34:                                               ; preds = %29
  %35 = load i32, i32* %3, align 4
  %36 = add nsw i32 %35, 2000
  store i32 %36, i32* %3, align 4
  br label %37

37:                                               ; preds = %34, %29
  %38 = load %struct.student*, %struct.student** %2, align 8
  %39 = getelementptr inbounds %struct.student, %struct.student* %38, i32 0, i32 1
  %40 = load i32, i32* %39, align 4
  %41 = icmp sgt i32 %40, 85
  br i1 %41, label %42, label %51

42:                                               ; preds = %37
  %43 = load %struct.student*, %struct.student** %2, align 8
  %44 = getelementptr inbounds %struct.student, %struct.student* %43, i32 0, i32 4
  %45 = load i8, i8* %44, align 1
  %46 = sext i8 %45 to i32
  %47 = icmp eq i32 %46, 89
  br i1 %47, label %48, label %51

48:                                               ; preds = %42
  %49 = load i32, i32* %3, align 4
  %50 = add nsw i32 %49, 1000
  store i32 %50, i32* %3, align 4
  br label %51

51:                                               ; preds = %48, %42, %37
  %52 = load %struct.student*, %struct.student** %2, align 8
  %53 = getelementptr inbounds %struct.student, %struct.student* %52, i32 0, i32 2
  %54 = load i32, i32* %53, align 4
  %55 = icmp sgt i32 %54, 80
  br i1 %55, label %56, label %65

56:                                               ; preds = %51
  %57 = load %struct.student*, %struct.student** %2, align 8
  %58 = getelementptr inbounds %struct.student, %struct.student* %57, i32 0, i32 3
  %59 = load i8, i8* %58, align 4
  %60 = sext i8 %59 to i32
  %61 = icmp eq i32 %60, 89
  br i1 %61, label %62, label %65

62:                                               ; preds = %56
  %63 = load i32, i32* %3, align 4
  %64 = add nsw i32 %63, 850
  store i32 %64, i32* %3, align 4
  br label %65

65:                                               ; preds = %62, %56, %51
  %66 = load i32, i32* %3, align 4
  ret i32 %66
}

; Function Attrs: noinline nounwind uwtable
define dso_local i32 @main() #0 {
  %1 = alloca i32, align 4
  %2 = alloca i32, align 4
  %3 = alloca i32, align 4
  %4 = alloca i32, align 4
  %5 = alloca i64, align 8
  %6 = alloca [100 x %struct.student], align 16
  %7 = alloca [100 x %struct.student*], align 16
  %8 = alloca %struct.student, align 4
  store i32 0, i32* %1, align 4
  store i64 0, i64* %5, align 8
  %9 = call i32 (i8*, ...) @__isoc99_scanf(i8* getelementptr inbounds ([3 x i8], [3 x i8]* @.str, i64 0, i64 0), i32* %2)
  store i32 0, i32* %3, align 4
  br label %10

10:                                               ; preds = %63, %0
  %11 = load i32, i32* %3, align 4
  %12 = load i32, i32* %2, align 4
  %13 = icmp slt i32 %11, %12
  br i1 %13, label %14, label %66

14:                                               ; preds = %10
  %15 = load i32, i32* %3, align 4
  %16 = sext i32 %15 to i64
  %17 = getelementptr inbounds [100 x %struct.student], [100 x %struct.student]* %6, i64 0, i64 %16
  %18 = getelementptr inbounds %struct.student, %struct.student* %17, i32 0, i32 0
  %19 = load i32, i32* %3, align 4
  %20 = sext i32 %19 to i64
  %21 = getelementptr inbounds [100 x %struct.student], [100 x %struct.student]* %6, i64 0, i64 %20
  %22 = getelementptr inbounds %struct.student, %struct.student* %21, i32 0, i32 1
  %23 = load i32, i32* %3, align 4
  %24 = sext i32 %23 to i64
  %25 = getelementptr inbounds [100 x %struct.student], [100 x %struct.student]* %6, i64 0, i64 %24
  %26 = getelementptr inbounds %struct.student, %struct.student* %25, i32 0, i32 2
  %27 = load i32, i32* %3, align 4
  %28 = sext i32 %27 to i64
  %29 = getelementptr inbounds [100 x %struct.student], [100 x %struct.student]* %6, i64 0, i64 %28
  %30 = getelementptr inbounds %struct.student, %struct.student* %29, i32 0, i32 3
  %31 = load i32, i32* %3, align 4
  %32 = sext i32 %31 to i64
  %33 = getelementptr inbounds [100 x %struct.student], [100 x %struct.student]* %6, i64 0, i64 %32
  %34 = getelementptr inbounds %struct.student, %struct.student* %33, i32 0, i32 4
  %35 = load i32, i32* %3, align 4
  %36 = sext i32 %35 to i64
  %37 = getelementptr inbounds [100 x %struct.student], [100 x %struct.student]* %6, i64 0, i64 %36
  %38 = getelementptr inbounds %struct.student, %struct.student* %37, i32 0, i32 5
  %39 = call i32 (i8*, ...) @__isoc99_scanf(i8* getelementptr inbounds ([18 x i8], [18 x i8]* @.str.1, i64 0, i64 0), [21 x i8]* %18, i32* %22, i32* %26, i8* %30, i8* %34, i32* %38)
  %40 = load i32, i32* %3, align 4
  %41 = sext i32 %40 to i64
  %42 = getelementptr inbounds [100 x %struct.student], [100 x %struct.student]* %6, i64 0, i64 %41
  %43 = load i32, i32* %3, align 4
  %44 = sext i32 %43 to i64
  %45 = getelementptr inbounds [100 x %struct.student*], [100 x %struct.student*]* %7, i64 0, i64 %44
  store %struct.student* %42, %struct.student** %45, align 8
  %46 = load i32, i32* %3, align 4
  %47 = sext i32 %46 to i64
  %48 = getelementptr inbounds [100 x %struct.student*], [100 x %struct.student*]* %7, i64 0, i64 %47
  %49 = load %struct.student*, %struct.student** %48, align 8
  %50 = call i32 @award(%struct.student* %49)
  %51 = load i32, i32* %3, align 4
  %52 = sext i32 %51 to i64
  %53 = getelementptr inbounds [100 x %struct.student], [100 x %struct.student]* %6, i64 0, i64 %52
  %54 = getelementptr inbounds %struct.student, %struct.student* %53, i32 0, i32 6
  store i32 %50, i32* %54, align 4
  %55 = load i32, i32* %3, align 4
  %56 = sext i32 %55 to i64
  %57 = getelementptr inbounds [100 x %struct.student], [100 x %struct.student]* %6, i64 0, i64 %56
  %58 = getelementptr inbounds %struct.student, %struct.student* %57, i32 0, i32 6
  %59 = load i32, i32* %58, align 4
  %60 = sext i32 %59 to i64
  %61 = load i64, i64* %5, align 8
  %62 = add nsw i64 %61, %60
  store i64 %62, i64* %5, align 8
  br label %63

63:                                               ; preds = %14
  %64 = load i32, i32* %3, align 4
  %65 = add nsw i32 %64, 1
  store i32 %65, i32* %3, align 4
  br label %10

66:                                               ; preds = %10
  store i32 0, i32* %3, align 4
  br label %67

67:                                               ; preds = %115, %66
  %68 = load i32, i32* %3, align 4
  %69 = load i32, i32* %2, align 4
  %70 = sub nsw i32 %69, 1
  %71 = icmp slt i32 %68, %70
  br i1 %71, label %72, label %118

72:                                               ; preds = %67
  %73 = load i32, i32* %3, align 4
  %74 = add nsw i32 %73, 1
  store i32 %74, i32* %4, align 4
  br label %75

75:                                               ; preds = %111, %72
  %76 = load i32, i32* %4, align 4
  %77 = load i32, i32* %2, align 4
  %78 = icmp slt i32 %76, %77
  br i1 %78, label %79, label %114

79:                                               ; preds = %75
  %80 = load i32, i32* %4, align 4
  %81 = sext i32 %80 to i64
  %82 = getelementptr inbounds [100 x %struct.student], [100 x %struct.student]* %6, i64 0, i64 %81
  %83 = getelementptr inbounds %struct.student, %struct.student* %82, i32 0, i32 6
  %84 = load i32, i32* %83, align 4
  %85 = load i32, i32* %3, align 4
  %86 = sext i32 %85 to i64
  %87 = getelementptr inbounds [100 x %struct.student], [100 x %struct.student]* %6, i64 0, i64 %86
  %88 = getelementptr inbounds %struct.student, %struct.student* %87, i32 0, i32 6
  %89 = load i32, i32* %88, align 4
  %90 = icmp sgt i32 %84, %89
  br i1 %90, label %91, label %110

91:                                               ; preds = %79
  %92 = load i32, i32* %3, align 4
  %93 = sext i32 %92 to i64
  %94 = getelementptr inbounds [100 x %struct.student], [100 x %struct.student]* %6, i64 0, i64 %93
  %95 = bitcast %struct.student* %8 to i8*
  %96 = bitcast %struct.student* %94 to i8*
  call void @llvm.memcpy.p0i8.p0i8.i64(i8* align 4 %95, i8* align 4 %96, i64 44, i1 false)
  %97 = load i32, i32* %3, align 4
  %98 = sext i32 %97 to i64
  %99 = getelementptr inbounds [100 x %struct.student], [100 x %struct.student]* %6, i64 0, i64 %98
  %100 = load i32, i32* %4, align 4
  %101 = sext i32 %100 to i64
  %102 = getelementptr inbounds [100 x %struct.student], [100 x %struct.student]* %6, i64 0, i64 %101
  %103 = bitcast %struct.student* %99 to i8*
  %104 = bitcast %struct.student* %102 to i8*
  call void @llvm.memcpy.p0i8.p0i8.i64(i8* align 4 %103, i8* align 4 %104, i64 44, i1 false)
  %105 = load i32, i32* %4, align 4
  %106 = sext i32 %105 to i64
  %107 = getelementptr inbounds [100 x %struct.student], [100 x %struct.student]* %6, i64 0, i64 %106
  %108 = bitcast %struct.student* %107 to i8*
  %109 = bitcast %struct.student* %8 to i8*
  call void @llvm.memcpy.p0i8.p0i8.i64(i8* align 4 %108, i8* align 4 %109, i64 44, i1 false)
  br label %110

110:                                              ; preds = %91, %79
  br label %111

111:                                              ; preds = %110
  %112 = load i32, i32* %4, align 4
  %113 = add nsw i32 %112, 1
  store i32 %113, i32* %4, align 4
  br label %75

114:                                              ; preds = %75
  br label %115

115:                                              ; preds = %114
  %116 = load i32, i32* %3, align 4
  %117 = add nsw i32 %116, 1
  store i32 %117, i32* %3, align 4
  br label %67

118:                                              ; preds = %67
  %119 = getelementptr inbounds [100 x %struct.student], [100 x %struct.student]* %6, i64 0, i64 0
  %120 = getelementptr inbounds %struct.student, %struct.student* %119, i32 0, i32 0
  %121 = getelementptr inbounds [21 x i8], [21 x i8]* %120, i64 0, i64 0
  %122 = getelementptr inbounds [100 x %struct.student], [100 x %struct.student]* %6, i64 0, i64 0
  %123 = getelementptr inbounds %struct.student, %struct.student* %122, i32 0, i32 6
  %124 = load i32, i32* %123, align 8
  %125 = load i64, i64* %5, align 8
  %126 = call i32 (i8*, ...) @printf(i8* getelementptr inbounds ([10 x i8], [10 x i8]* @.str.2, i64 0, i64 0), i8* %121, i32 %124, i64 %125)
  ret i32 0
}

declare dso_local i32 @__isoc99_scanf(i8*, ...) #1

; Function Attrs: argmemonly nounwind willreturn
declare void @llvm.memcpy.p0i8.p0i8.i64(i8* noalias nocapture writeonly, i8* noalias nocapture readonly, i64, i1 immarg) #2

declare dso_local i32 @printf(i8*, ...) #1


!llvm.module.flags = !{!0}
!llvm.ident = !{!1}

!0 = !{i32 1, !"wchar_size", i32 4}
!1 = !{!"clang version 10.0.0-4ubuntu1 "}
